target datalayout = "e-m:e-p270:32:32-p271:32:32-p272:64:64-i64:64-i128:128-f80:128-n8:16:32:64-S128"
target triple = "x86_64-pc-linux-gnu"

%"class.sat::literal" = type { i32 }
%"class.pb::pbc" = type <{ %"class.pb::constraint", i32, i32, i32, [0 x %"struct.std::pair"], [4 x i8] }>
%"class.pb::constraint" = type { ptr, i32, i8, %"class.sat::literal", %"class.sat::literal", i32, i32, i32, i64, i8, i32, i8, i32 }
%"struct.std::pair" = type { i32, %"class.sat::literal" }
%"class.sat::simplifier" = type { ptr, i32, %"class.sat::use_list", %"class.sat::ext_use_list", %"class.sat::clause_set", %class.svector.7, i32, %class.tracked_uint_set, i8, %"class.sat::tmp_clause", %class.svector.9, i32, i32, i8, i8, i8, i8, i32, i8, i8, i32, i8, i32, i8, i8, i32, i32, i32, i32, i32, i32, i32, i32, i32, i32, i8, i32, i8, i8, i32, i32, i32, i32, i32, i32, i32, i32, i32, i32, i32, i8, i32, %class.ptr_vector, %class.svector.11, %class.svector.13, %class.svector.13, %class.svector.11 }
%"class.sat::use_list" = type { %class.vector.3 }
%class.vector.3 = type { ptr }
%"class.sat::ext_use_list" = type { %class.vector.2 }
%class.vector.2 = type { ptr }
%"class.sat::clause_set" = type { %class.svector.4, %class.ptr_vector }
%class.svector.4 = type { %class.vector.5 }
%class.vector.5 = type { ptr }
%class.svector.7 = type { %class.vector.8 }
%class.vector.8 = type { ptr }
%class.tracked_uint_set = type { %class.svector.9, %class.svector.4 }
%"class.sat::tmp_clause" = type { ptr }
%class.svector.9 = type { %class.vector.10 }
%class.vector.10 = type { ptr }
%class.ptr_vector = type { %class.vector.6 }
%class.vector.6 = type { ptr }
%class.svector.13 = type { %class.vector.14 }
%class.vector.14 = type { ptr }
%class.svector.11 = type { %class.vector.12 }
%class.vector.12 = type { ptr }

; Function Attrs: mustprogress nounwind uwtable
define linkonce_odr hidden noundef nonnull align 1 dereferenceable(1) ptr @_ZNK6vectorIcLb0EjEixEj(ptr noundef nonnull align 8 dereferenceable(8) %0, i32 noundef %1) #4 comdat align 2 {
  %3 = alloca ptr, align 8
  %4 = alloca i32, align 4
  store ptr %0, ptr %3, align 8, !tbaa !145
  store i32 %1, ptr %4, align 4, !tbaa !10
  %5 = load ptr, ptr %3, align 8
  %6 = getelementptr inbounds nuw %class.vector.10, ptr %5, i32 0, i32 0
  %7 = load ptr, ptr %6, align 8, !tbaa !147
  %8 = load i32, ptr %4, align 4, !tbaa !10
  %9 = zext i32 %8 to i64
  %10 = getelementptr inbounds nuw i8, ptr %7, i64 %9
  ret ptr %10
}

; Function Attrs: mustprogress nounwind uwtable
define linkonce_odr hidden noundef i32 @_ZNK3sat7literal5indexEv(ptr noundef nonnull align 4 dereferenceable(4) %0) #4 comdat align 2 {
  %2 = alloca ptr, align 8
  store ptr %0, ptr %2, align 8, !tbaa !61
  %3 = load ptr, ptr %2, align 8
  %4 = getelementptr inbounds nuw %"class.sat::literal", ptr %3, i32 0, i32 0
  %5 = load i32, ptr %4, align 4, !tbaa !63
  ret i32 %5
}

; Function Attrs: mustprogress nounwind uwtable
define linkonce_odr hidden noundef i32 @_ZNK2pb10constraint1kEv(ptr noundef nonnull align 8 dereferenceable(64) %0) #4 comdat align 2 {
  %2 = alloca ptr, align 8
  store ptr %0, ptr %2, align 8, !tbaa !3
  %3 = load ptr, ptr %2, align 8
  %4 = getelementptr inbounds nuw %"class.pb::constraint", ptr %3, i32 0, i32 12
  %5 = load i32, ptr %4, align 4, !tbaa !46
  ret i32 %5
}

; Function Attrs: inlinehint mustprogress nounwind uwtable
define linkonce_odr noundef nonnull align 4 dereferenceable(4) ptr @_ZSt3minIjERKT_S2_S2_(ptr noundef nonnull align 4 dereferenceable(4) %0, ptr noundef nonnull align 4 dereferenceable(4) %1) #8 comdat {
  %3 = alloca ptr, align 8
  %4 = alloca ptr, align 8
  %5 = alloca ptr, align 8
  store ptr %0, ptr %4, align 8, !tbaa !49
  store ptr %1, ptr %5, align 8, !tbaa !49
  %6 = load ptr, ptr %5, align 8, !tbaa !49
  %7 = load i32, ptr %6, align 4, !tbaa !10
  %8 = load ptr, ptr %4, align 8, !tbaa !49
  %9 = load i32, ptr %8, align 4, !tbaa !10
  %10 = icmp ult i32 %7, %9
  br i1 %10, label %11, label %13

11:                                               ; preds = %2
  %12 = load ptr, ptr %5, align 8, !tbaa !49
  store ptr %12, ptr %3, align 8
  br label %15

13:                                               ; preds = %2
  %14 = load ptr, ptr %4, align 8, !tbaa !49
  store ptr %14, ptr %3, align 8
  br label %15

15:                                               ; preds = %13, %11
  %16 = load ptr, ptr %3, align 8
  ret ptr %16
}

; Function Attrs: mustprogress uwtable
define linkonce_odr hidden noundef zeroext i1 @_ZNK3sat10simplifier9is_markedENS_7literalE(ptr noundef nonnull align 8 dereferenceable(288) %0, i32 %1) #5 comdat align 2 {
  %3 = alloca %"class.sat::literal", align 4
  %4 = alloca ptr, align 8
  %5 = getelementptr inbounds nuw %"class.sat::literal", ptr %3, i32 0, i32 0
  store i32 %1, ptr %5, align 4
  store ptr %0, ptr %4, align 8, !tbaa !100
  %6 = load ptr, ptr %4, align 8
  %7 = getelementptr inbounds nuw %"class.sat::simplifier", ptr %6, i32 0, i32 10
  %8 = call noundef i32 @_ZNK3sat7literal5indexEv(ptr noundef nonnull align 4 dereferenceable(4) %3)
  %9 = call noundef nonnull align 1 dereferenceable(1) ptr @_ZNK6vectorIcLb0EjEixEj(ptr noundef nonnull align 8 dereferenceable(8) %7, i32 noundef %8)
  %10 = load i8, ptr %9, align 1, !tbaa !102
  %11 = sext i8 %10 to i32
  %12 = icmp ne i32 %11, 0
  ret i1 %12
}

; Function Attrs: inlinehint mustprogress nounwind uwtable
define linkonce_odr hidden noundef zeroext i1 @_ZN3sateqERKNS_7literalES2_(ptr noundef nonnull align 4 dereferenceable(4) %0, ptr noundef nonnull align 4 dereferenceable(4) %1) #8 comdat {
  %3 = alloca ptr, align 8
  %4 = alloca ptr, align 8
  store ptr %0, ptr %3, align 8, !tbaa !61
  store ptr %1, ptr %4, align 8, !tbaa !61
  %5 = load ptr, ptr %3, align 8, !tbaa !61
  %6 = getelementptr inbounds nuw %"class.sat::literal", ptr %5, i32 0, i32 0
  %7 = load i32, ptr %6, align 4, !tbaa !63
  %8 = load ptr, ptr %4, align 8, !tbaa !61
  %9 = getelementptr inbounds nuw %"class.sat::literal", ptr %8, i32 0, i32 0
  %10 = load i32, ptr %9, align 4, !tbaa !63
  %11 = icmp eq i32 %7, %10
  ret i1 %11
}

; Function Attrs: mustprogress nounwind uwtable
define linkonce_odr hidden i32 @_ZN3satcoENS_7literalE(i32 %0) #4 comdat {
  %2 = alloca %"class.sat::literal", align 4
  %3 = alloca %"class.sat::literal", align 4
  %4 = getelementptr inbounds nuw %"class.sat::literal", ptr %3, i32 0, i32 0
  store i32 %0, ptr %4, align 4
  %5 = getelementptr inbounds nuw %"class.sat::literal", ptr %3, i32 0, i32 0
  %6 = load i32, ptr %5, align 4, !tbaa !63
  %7 = xor i32 %6, 1
  %8 = getelementptr inbounds nuw %"class.sat::literal", ptr %3, i32 0, i32 0
  store i32 %7, ptr %8, align 4, !tbaa !63
  call void @llvm.memcpy.p0.p0.i64(ptr align 4 %2, ptr align 4 %3, i64 4, i1 false), !tbaa.struct !14
  %9 = getelementptr inbounds nuw %"class.sat::literal", ptr %2, i32 0, i32 0
  %10 = load i32, ptr %9, align 4
  ret i32 %10
}

; Function Attrs: mustprogress nounwind uwtable
define linkonce_odr hidden noundef ptr @_ZNK2pb3pbc3endEv(ptr noundef nonnull align 8 dereferenceable(76) %0) #4 comdat align 2 {
  %2 = alloca ptr, align 8
  store ptr %0, ptr %2, align 8, !tbaa !8
  %3 = load ptr, ptr %2, align 8
  %4 = call noundef ptr @_ZNK2pb3pbc5beginEv(ptr noundef nonnull align 8 dereferenceable(76) %3)
  %5 = getelementptr inbounds nuw %"class.pb::constraint", ptr %3, i32 0, i32 7
  %6 = load i32, ptr %5, align 8, !tbaa !41
  %7 = zext i32 %6 to i64
  %8 = getelementptr inbounds nuw %"struct.std::pair", ptr %4, i64 %7
  ret ptr %8
}

; Function Attrs: mustprogress nounwind uwtable
define linkonce_odr hidden noundef ptr @_ZNK2pb3pbc5beginEv(ptr noundef nonnull align 8 dereferenceable(76) %0) #4 comdat align 2 {
  %2 = alloca ptr, align 8
  store ptr %0, ptr %2, align 8, !tbaa !8
  %3 = load ptr, ptr %2, align 8
  %4 = getelementptr inbounds nuw %"class.pb::pbc", ptr %3, i32 0, i32 4
  %5 = getelementptr inbounds [0 x %"struct.std::pair"], ptr %4, i64 0, i64 0
  ret ptr %5
}

; Function Attrs: mustprogress uwtable
define hidden noundef zeroext i1 @_ZNK2pb3pbc10is_blockedERN3sat10simplifierENS1_7literalE(ptr noundef nonnull align 8 dereferenceable(76) %0, ptr noundef nonnull align 8 dereferenceable(288) %1, i32 %2) unnamed_addr #5 align 2 {
  %4 = alloca %"class.sat::literal", align 4
  %5 = alloca ptr, align 8
  %6 = alloca ptr, align 8
  %7 = alloca i32, align 4
  %8 = alloca i32, align 4
  %9 = alloca ptr, align 8
  %10 = alloca ptr, align 8
  %11 = alloca ptr, align 8
  %12 = alloca i32, align 4
  %13 = alloca %"struct.std::pair", align 4
  %14 = alloca %"class.sat::literal", align 4
  %15 = alloca %"class.sat::literal", align 4
  %16 = alloca ptr, align 8
  %17 = alloca ptr, align 8
  %18 = alloca ptr, align 8
  %19 = alloca %"struct.std::pair", align 4
  %20 = alloca %"class.sat::literal", align 4
  %21 = alloca %"class.sat::literal", align 4
  %22 = getelementptr inbounds nuw %"class.sat::literal", ptr %4, i32 0, i32 0
  store i32 %2, ptr %22, align 4
  store ptr %0, ptr %5, align 8, !tbaa !8
  store ptr %1, ptr %6, align 8, !tbaa !100
  %23 = load ptr, ptr %5, align 8
  call void @llvm.lifetime.start.p0(i64 4, ptr %7) #3
  store i32 0, ptr %7, align 4, !tbaa !10
  call void @llvm.lifetime.start.p0(i64 4, ptr %8) #3
  store i32 0, ptr %8, align 4, !tbaa !10
  call void @llvm.lifetime.start.p0(i64 8, ptr %9) #3
  store ptr %23, ptr %9, align 8, !tbaa !8
  call void @llvm.lifetime.start.p0(i64 8, ptr %10) #3
  %24 = load ptr, ptr %9, align 8, !tbaa !8
  %25 = call noundef ptr @_ZNK2pb3pbc5beginEv(ptr noundef nonnull align 8 dereferenceable(76) %24)
  store ptr %25, ptr %10, align 8, !tbaa !47
  call void @llvm.lifetime.start.p0(i64 8, ptr %11) #3
  %26 = load ptr, ptr %9, align 8, !tbaa !8
  %27 = call noundef ptr @_ZNK2pb3pbc3endEv(ptr noundef nonnull align 8 dereferenceable(76) %26)
  store ptr %27, ptr %11, align 8, !tbaa !47
  br label %28

28:                                               ; preds = %48, %3
  %29 = load ptr, ptr %10, align 8, !tbaa !47
  %30 = load ptr, ptr %11, align 8, !tbaa !47
  %31 = icmp ne ptr %29, %30
  br i1 %31, label %33, label %32

32:                                               ; preds = %28
  store i32 2, ptr %12, align 4
  br label %51

33:                                               ; preds = %28
  call void @llvm.lifetime.start.p0(i64 8, ptr %13) #3
  %34 = load ptr, ptr %10, align 8, !tbaa !47
  call void @llvm.memcpy.p0.p0.i64(ptr align 4 %13, ptr align 4 %34, i64 8, i1 false)
  call void @llvm.lifetime.start.p0(i64 4, ptr %14) #3
  %35 = getelementptr inbounds nuw %"struct.std::pair", ptr %13, i32 0, i32 1
  call void @llvm.memcpy.p0.p0.i64(ptr align 4 %15, ptr align 4 %35, i64 4, i1 false), !tbaa.struct !14
  %36 = getelementptr inbounds nuw %"class.sat::literal", ptr %15, i32 0, i32 0
  %37 = load i32, ptr %36, align 4
  %38 = call i32 @_ZN3satcoENS_7literalE(i32 %37)
  %39 = getelementptr inbounds nuw %"class.sat::literal", ptr %14, i32 0, i32 0
  store i32 %38, ptr %39, align 4
  %40 = call noundef zeroext i1 @_ZN3sateqERKNS_7literalES2_(ptr noundef nonnull align 4 dereferenceable(4) %14, ptr noundef nonnull align 4 dereferenceable(4) %4)
  call void @llvm.lifetime.end.p0(i64 4, ptr %14) #3
  br i1 %40, label %41, label %44

41:                                               ; preds = %33
  %42 = getelementptr inbounds nuw %"struct.std::pair", ptr %13, i32 0, i32 0
  %43 = load i32, ptr %42, align 4, !tbaa !26
  store i32 %43, ptr %8, align 4, !tbaa !10
  store i32 2, ptr %12, align 4
  br label %45

44:                                               ; preds = %33
  store i32 0, ptr %12, align 4
  br label %45

45:                                               ; preds = %44, %41
  call void @llvm.lifetime.end.p0(i64 8, ptr %13) #3
  %46 = load i32, ptr %12, align 4
  switch i32 %46, label %51 [
    i32 0, label %47
  ]

47:                                               ; preds = %45
  br label %48

48:                                               ; preds = %47
  %49 = load ptr, ptr %10, align 8, !tbaa !47
  %50 = getelementptr inbounds nuw %"struct.std::pair", ptr %49, i32 1
  store ptr %50, ptr %10, align 8, !tbaa !47
  br label %28

51:                                               ; preds = %45, %32
  call void @llvm.lifetime.end.p0(i64 8, ptr %11) #3
  call void @llvm.lifetime.end.p0(i64 8, ptr %10) #3
  call void @llvm.lifetime.end.p0(i64 8, ptr %9) #3
  br label %52

52:                                               ; preds = %51
  call void @llvm.lifetime.start.p0(i64 8, ptr %16) #3
  store ptr %23, ptr %16, align 8, !tbaa !8
  call void @llvm.lifetime.start.p0(i64 8, ptr %17) #3
  %53 = load ptr, ptr %16, align 8, !tbaa !8
  %54 = call noundef ptr @_ZNK2pb3pbc5beginEv(ptr noundef nonnull align 8 dereferenceable(76) %53)
  store ptr %54, ptr %17, align 8, !tbaa !47
  call void @llvm.lifetime.start.p0(i64 8, ptr %18) #3
  %55 = load ptr, ptr %16, align 8, !tbaa !8
  %56 = call noundef ptr @_ZNK2pb3pbc3endEv(ptr noundef nonnull align 8 dereferenceable(76) %55)
  store ptr %56, ptr %18, align 8, !tbaa !47
  br label %57

57:                                               ; preds = %80, %52
  %58 = load ptr, ptr %17, align 8, !tbaa !47
  %59 = load ptr, ptr %18, align 8, !tbaa !47
  %60 = icmp ne ptr %58, %59
  br i1 %60, label %62, label %61

61:                                               ; preds = %57
  store i32 4, ptr %12, align 4
  call void @llvm.lifetime.end.p0(i64 8, ptr %18) #3
  call void @llvm.lifetime.end.p0(i64 8, ptr %17) #3
  call void @llvm.lifetime.end.p0(i64 8, ptr %16) #3
  br label %83

62:                                               ; preds = %57
  call void @llvm.lifetime.start.p0(i64 8, ptr %19) #3
  %63 = load ptr, ptr %17, align 8, !tbaa !47
  call void @llvm.memcpy.p0.p0.i64(ptr align 4 %19, ptr align 4 %63, i64 8, i1 false)
  %64 = load ptr, ptr %6, align 8, !tbaa !100
  %65 = getelementptr inbounds nuw %"struct.std::pair", ptr %19, i32 0, i32 1
  call void @llvm.memcpy.p0.p0.i64(ptr align 4 %21, ptr align 4 %65, i64 4, i1 false), !tbaa.struct !14
  %66 = getelementptr inbounds nuw %"class.sat::literal", ptr %21, i32 0, i32 0
  %67 = load i32, ptr %66, align 4
  %68 = call i32 @_ZN3satcoENS_7literalE(i32 %67)
  %69 = getelementptr inbounds nuw %"class.sat::literal", ptr %20, i32 0, i32 0
  store i32 %68, ptr %69, align 4
  %70 = getelementptr inbounds nuw %"class.sat::literal", ptr %20, i32 0, i32 0
  %71 = load i32, ptr %70, align 4
  %72 = call noundef zeroext i1 @_ZNK3sat10simplifier9is_markedENS_7literalE(ptr noundef nonnull align 8 dereferenceable(288) %64, i32 %71)
  br i1 %72, label %73, label %79

73:                                               ; preds = %62
  %74 = getelementptr inbounds nuw %"struct.std::pair", ptr %19, i32 0, i32 0
  %75 = call noundef nonnull align 4 dereferenceable(4) ptr @_ZSt3minIjERKT_S2_S2_(ptr noundef nonnull align 4 dereferenceable(4) %8, ptr noundef nonnull align 4 dereferenceable(4) %74)
  %76 = load i32, ptr %75, align 4, !tbaa !10
  %77 = load i32, ptr %7, align 4, !tbaa !10
  %78 = add i32 %77, %76
  store i32 %78, ptr %7, align 4, !tbaa !10
  br label %79

79:                                               ; preds = %73, %62
  call void @llvm.lifetime.end.p0(i64 8, ptr %19) #3
  br label %80

80:                                               ; preds = %79
  %81 = load ptr, ptr %17, align 8, !tbaa !47
  %82 = getelementptr inbounds nuw %"struct.std::pair", ptr %81, i32 1
  store ptr %82, ptr %17, align 8, !tbaa !47
  br label %57

83:                                               ; preds = %61
  %84 = load i32, ptr %7, align 4, !tbaa !10
  %85 = call noundef i32 @_ZNK2pb10constraint1kEv(ptr noundef nonnull align 8 dereferenceable(64) %23)
  %86 = icmp uge i32 %84, %85
  store i32 1, ptr %12, align 4
  call void @llvm.lifetime.end.p0(i64 4, ptr %8) #3
  call void @llvm.lifetime.end.p0(i64 4, ptr %7) #3
  ret i1 %86
}