; Function Attrs: mustprogress nofree norecurse nosync nounwind willreturn memory(read, inaccessiblemem: none) uwtable
define hidden noundef zeroext i1 @_ZNK2pb3pbc10is_blockedERN3sat10simplifierENS1_7literalE(ptr noundef nonnull readonly align 8 captures(address) dereferenceable(76) %0, ptr noundef nonnull readonly align 8 captures(none) dereferenceable(288) %1, i32 %2) unnamed_addr #10 align 2 {
  %.ptr = getelementptr inbounds nuw i8, ptr %0, i64 76
  %4 = getelementptr inbounds nuw i8, ptr %0, i64 32
  %5 = load i32, ptr %4, align 8, !tbaa !20
  %6 = zext i32 %5 to i64
  %.idx = shl nuw nsw i64 %6, 3
  %7 = getelementptr inbounds nuw i8, ptr %0, i64 %.idx
  %.ptr38 = getelementptr inbounds nuw i8, ptr %7, i64 76
  %.not31 = icmp eq i32 %5, 0
  br i1 %.not31, label %._crit_edge, label %.lr.ph

.lr.ph:                                           ; preds = %3, %.critedge
  %.01932 = phi ptr [ %10, %.critedge ], [ %.ptr, %3 ]
  %.sroa.4.0..sroa_idx = getelementptr inbounds nuw i8, ptr %.01932, i64 4
  %.sroa.4.0.copyload = load i32, ptr %.sroa.4.0..sroa_idx, align 4
  %8 = xor i32 %.sroa.4.0.copyload, %2
  %9 = icmp eq i32 %8, 1
  br i1 %9, label %.split.loop.exit, label %.critedge

.critedge:                                        ; preds = %.lr.ph
  %10 = getelementptr inbounds nuw i8, ptr %.01932, i64 8
  %.not = icmp eq ptr %10, %.ptr38
  br i1 %.not, label %.lr.ph36, label %.lr.ph

.split.loop.exit:                                 ; preds = %.lr.ph
  %.sroa.08.0.copyload.le = load i32, ptr %.01932, align 4
  br label %.lr.ph36

.lr.ph36:                                         ; preds = %.critedge, %.split.loop.exit
  %.027 = phi i32 [ %.sroa.08.0.copyload.le, %.split.loop.exit ], [ 0, %.critedge ]
  %11 = getelementptr inbounds nuw i8, ptr %1, i64 96
  %12 = load ptr, ptr %11, align 8, !tbaa !79
  br label %16

._crit_edge:                                      ; preds = %16, %3
  %.0.lcssa = phi i32 [ 0, %3 ], [ %.1, %16 ]
  %13 = getelementptr inbounds nuw i8, ptr %0, i64 60
  %14 = load i32, ptr %13, align 4, !tbaa !25
  %15 = icmp uge i32 %.0.lcssa, %14
  ret i1 %15

16:                                               ; preds = %.lr.ph36, %16
  %.035 = phi i32 [ 0, %.lr.ph36 ], [ %.1, %16 ]
  %.02134 = phi ptr [ %.ptr, %.lr.ph36 ], [ %24, %16 ]
  %17 = load i32, ptr %.02134, align 4
  %.021.sroa_idx = getelementptr inbounds nuw i8, ptr %.02134, i64 4
  %18 = load i32, ptr %.021.sroa_idx, align 4
  %19 = xor i32 %18, 1
  %20 = zext i32 %19 to i64
  %21 = getelementptr inbounds nuw i8, ptr %12, i64 %20
  %22 = load i8, ptr %21, align 1, !tbaa !43
  %.not28 = icmp eq i8 %22, 0
  %.sroa.speculated = tail call i32 @llvm.umin.i32(i32 %17, i32 %.027)
  %23 = select i1 %.not28, i32 0, i32 %.sroa.speculated
  %.1 = add i32 %23, %.035
  %24 = getelementptr inbounds nuw i8, ptr %.02134, i64 8
  %.not22 = icmp eq ptr %24, %.ptr38
  br i1 %.not22, label %._crit_edge, label %16
}